target datalayout = "e-m:e-p270:32:32-p271:32:32-p272:64:64-i64:64-i128:128-f80:128-n8:16:32:64-S128"
target triple = "x86_64-pc-linux-gnu"

%struct.CopyFromStateData = type { i32, ptr, ptr, i32, i32, i8, i32, ptr, ptr, ptr, i8, ptr, %struct.CopyFormatOptions, ptr, ptr, ptr, i64, ptr, ptr, i8, ptr, i16, ptr, ptr, ptr, i64, ptr, ptr, ptr, i8, ptr, ptr, ptr, ptr, %struct.StringInfoData, i32, ptr, %struct.StringInfoData, i8, ptr, i32, i32, i8, i8, ptr, i32, i32, i8, i64 }
%struct.CopyFormatOptions = type { i32, i8, i8, i8, i32, ptr, i32, ptr, ptr, i32, ptr, ptr, ptr, ptr, i8, ptr, ptr, i8, ptr, ptr, i8, ptr, i8, i32, i32, i64, ptr }
%struct.StringInfoData = type { ptr, i32, i32, i32 }

@.str.9 = private unnamed_addr constant [11 x i8] c"copyfrom.c\00", align 1
@.str.32 = private unnamed_addr constant [30 x i8] c"could not close file \22%s\22: %m\00", align 1
@__func__.EndCopyFrom = private unnamed_addr constant [12 x i8] c"EndCopyFrom\00", align 1
@.str.33 = private unnamed_addr constant [45 x i8] c"could not close pipe to external command: %m\00", align 1
@__func__.ClosePipeFromProgram = private unnamed_addr constant [21 x i8] c"ClosePipeFromProgram\00", align 1
@.str.34 = private unnamed_addr constant [20 x i8] c"program \22%s\22 failed\00", align 1
@.str.35 = private unnamed_addr constant [3 x i8] c"%s\00", align 1

; Function Attrs: nounwind uwtable
define internal void @ClosePipeFromProgram(ptr noundef %0) #0 {
  %2 = alloca ptr, align 8
  %3 = alloca i32, align 4
  %4 = alloca i32, align 4
  store ptr %0, ptr %2, align 8
  call void @llvm.lifetime.start.p0(i64 4, ptr %3) #11
  %5 = load ptr, ptr %2, align 8
  %6 = getelementptr inbounds nuw %struct.CopyFromStateData, ptr %5, i32 0, i32 1
  %7 = load ptr, ptr %6, align 8
  %8 = call i32 @ClosePipeStream(ptr noundef %7)
  store i32 %8, ptr %3, align 4
  %9 = load i32, ptr %3, align 4
  %10 = icmp eq i32 %9, -1
  br i1 %10, label %11, label %23

11:                                               ; preds = %1
  br label %12

12:                                               ; preds = %11
  br i1 true, label %13, label %15

13:                                               ; preds = %12
  %14 = call zeroext i1 @errstart_cold(i32 noundef 21, ptr noundef null) #13
  br i1 %14, label %17, label %20

15:                                               ; preds = %12
  %16 = call zeroext i1 @errstart(i32 noundef 21, ptr noundef null)
  br i1 %16, label %17, label %20

17:                                               ; preds = %15, %13
  %18 = call i32 @errcode_for_file_access()
  %19 = call i32 (ptr, ...) @errmsg(ptr noundef @.str.33)
  call void @errfinish(ptr noundef @.str.9, i32 noundef 1845, ptr noundef @__func__.ClosePipeFromProgram)
  br label %20

20:                                               ; preds = %17, %15, %13
  unreachable

21:                                               ; No predecessors!
  br label %22

22:                                               ; preds = %21
  br label %54

23:                                               ; preds = %1
  %24 = load i32, ptr %3, align 4
  %25 = icmp ne i32 %24, 0
  br i1 %25, label %26, label %53

26:                                               ; preds = %23
  %27 = load ptr, ptr %2, align 8
  %28 = getelementptr inbounds nuw %struct.CopyFromStateData, ptr %27, i32 0, i32 47
  %29 = load i8, ptr %28, align 8, !range !4, !noundef !5
  %30 = trunc i8 %29 to i1
  br i1 %30, label %35, label %31

31:                                               ; preds = %26
  %32 = load i32, ptr %3, align 4
  %33 = call zeroext i1 @wait_result_is_signal(i32 noundef %32, i32 noundef 13)
  br i1 %33, label %34, label %35

34:                                               ; preds = %31
  store i32 1, ptr %4, align 4
  br label %55

35:                                               ; preds = %31, %26
  br label %36

36:                                               ; preds = %35
  br i1 true, label %37, label %39

37:                                               ; preds = %36
  %38 = call zeroext i1 @errstart_cold(i32 noundef 21, ptr noundef null) #13
  br i1 %38, label %41, label %50

39:                                               ; preds = %36
  %40 = call zeroext i1 @errstart(i32 noundef 21, ptr noundef null)
  br i1 %40, label %41, label %50

41:                                               ; preds = %39, %37
  %42 = call i32 @errcode(i32 noundef 515)
  %43 = load ptr, ptr %2, align 8
  %44 = getelementptr inbounds nuw %struct.CopyFromStateData, ptr %43, i32 0, i32 9
  %45 = load ptr, ptr %44, align 8
  %46 = call i32 (ptr, ...) @errmsg(ptr noundef @.str.34, ptr noundef %45)
  %47 = load i32, ptr %3, align 4
  %48 = call ptr @wait_result_to_str(i32 noundef %47)
  %49 = call i32 (ptr, ...) @errdetail_internal(ptr noundef @.str.35, ptr noundef %48)
  call void @errfinish(ptr noundef @.str.9, i32 noundef 1862, ptr noundef @__func__.ClosePipeFromProgram)
  br label %50

50:                                               ; preds = %41, %39, %37
  unreachable

51:                                               ; No predecessors!
  br label %52

52:                                               ; preds = %51
  br label %53

53:                                               ; preds = %52, %23
  br label %54

54:                                               ; preds = %53, %22
  store i32 0, ptr %4, align 4
  br label %55

55:                                               ; preds = %54, %34
  call void @llvm.lifetime.end.p0(i64 4, ptr %3) #11
  %56 = load i32, ptr %4, align 4
  switch i32 %56, label %58 [
    i32 0, label %57
    i32 1, label %57
  ]

57:                                               ; preds = %55, %55
  ret void

58:                                               ; preds = %55
  unreachable
}

; Function Attrs: nounwind uwtable
define dso_local void @EndCopyFrom(ptr noundef %0) #0 {
  %2 = alloca ptr, align 8
  store ptr %0, ptr %2, align 8
  %3 = load ptr, ptr %2, align 8
  %4 = getelementptr inbounds nuw %struct.CopyFromStateData, ptr %3, i32 0, i32 10
  %5 = load i8, ptr %4, align 8, !range !4, !noundef !5
  %6 = trunc i8 %5 to i1
  br i1 %6, label %7, label %9

7:                                                ; preds = %1
  %8 = load ptr, ptr %2, align 8
  call void @ClosePipeFromProgram(ptr noundef %8)
  br label %35

9:                                                ; preds = %1
  %10 = load ptr, ptr %2, align 8
  %11 = getelementptr inbounds nuw %struct.CopyFromStateData, ptr %10, i32 0, i32 9
  %12 = load ptr, ptr %11, align 8
  %13 = icmp ne ptr %12, null
  br i1 %13, label %14, label %34

14:                                               ; preds = %9
  %15 = load ptr, ptr %2, align 8
  %16 = getelementptr inbounds nuw %struct.CopyFromStateData, ptr %15, i32 0, i32 1
  %17 = load ptr, ptr %16, align 8
  %18 = call i32 @FreeFile(ptr noundef %17)
  %19 = icmp ne i32 %18, 0
  br i1 %19, label %20, label %34

20:                                               ; preds = %14
  br label %21

21:                                               ; preds = %20
  br i1 true, label %22, label %24

22:                                               ; preds = %21
  %23 = call zeroext i1 @errstart_cold(i32 noundef 21, ptr noundef null) #13
  br i1 %23, label %26, label %32

24:                                               ; preds = %21
  %25 = call zeroext i1 @errstart(i32 noundef 21, ptr noundef null)
  br i1 %25, label %26, label %32

26:                                               ; preds = %24, %22
  %27 = call i32 @errcode_for_file_access()
  %28 = load ptr, ptr %2, align 8
  %29 = getelementptr inbounds nuw %struct.CopyFromStateData, ptr %28, i32 0, i32 9
  %30 = load ptr, ptr %29, align 8
  %31 = call i32 (ptr, ...) @errmsg(ptr noundef @.str.32, ptr noundef %30)
  call void @errfinish(ptr noundef @.str.9, i32 noundef 1822, ptr noundef @__func__.EndCopyFrom)
  br label %32

32:                                               ; preds = %26, %24, %22
  unreachable

33:                                               ; No predecessors!
  br label %34

34:                                               ; preds = %33, %14, %9
  br label %35

35:                                               ; preds = %34, %7
  call void @pgstat_progress_end_command()
  %36 = load ptr, ptr %2, align 8
  %37 = getelementptr inbounds nuw %struct.CopyFromStateData, ptr %36, i32 0, i32 20
  %38 = load ptr, ptr %37, align 8
  call void @MemoryContextDelete(ptr noundef %38)
  %39 = load ptr, ptr %2, align 8
  call void @pfree(ptr noundef %39)
  ret void
}