; Function Attrs: nounwind uwtable
define dso_local void @EndCopyFrom(ptr noundef %0) local_unnamed_addr #0 {
  %2 = getelementptr inbounds nuw i8, ptr %0, i64 64
  %3 = load i8, ptr %2, align 8, !range !4, !noundef !5
  %4 = trunc nuw i8 %3 to i1
  br i1 %4, label %5, label %27

5:                                                ; preds = %1
  %6 = getelementptr inbounds nuw i8, ptr %0, i64 8
  %7 = load ptr, ptr %6, align 8
  %8 = tail call i32 @ClosePipeStream(ptr noundef %7) #12
  switch i32 %8, label %13 [
    i32 -1, label %9
    i32 0, label %ClosePipeFromProgram.exit
  ]

9:                                                ; preds = %5
  %10 = tail call zeroext i1 @errstart_cold(i32 noundef 21, ptr noundef null) #14
  tail call void @llvm.assume(i1 %10)
  %11 = tail call i32 @errcode_for_file_access() #12
  %12 = tail call i32 (ptr, ...) @errmsg(ptr noundef nonnull @.str.33) #12
  tail call void @errfinish(ptr noundef nonnull @.str.9, i32 noundef 1845, ptr noundef nonnull @__func__.ClosePipeFromProgram) #12
  unreachable

13:                                               ; preds = %5
  %14 = getelementptr inbounds nuw i8, ptr %0, i64 544
  %15 = load i8, ptr %14, align 8, !range !4, !noundef !5
  %16 = trunc nuw i8 %15 to i1
  br i1 %16, label %19, label %17

17:                                               ; preds = %13
  %18 = tail call zeroext i1 @wait_result_is_signal(i32 noundef %8, i32 noundef 13) #12
  br i1 %18, label %ClosePipeFromProgram.exit, label %19

19:                                               ; preds = %17, %13
  %20 = tail call zeroext i1 @errstart_cold(i32 noundef 21, ptr noundef null) #14
  tail call void @llvm.assume(i1 %20)
  %21 = tail call i32 @errcode(i32 noundef 515) #12
  %22 = getelementptr inbounds nuw i8, ptr %0, i64 56
  %23 = load ptr, ptr %22, align 8
  %24 = tail call i32 (ptr, ...) @errmsg(ptr noundef nonnull @.str.34, ptr noundef %23) #12
  %25 = tail call ptr @wait_result_to_str(i32 noundef %8) #12
  %26 = tail call i32 (ptr, ...) @errdetail_internal(ptr noundef nonnull @.str.35, ptr noundef %25) #12
  tail call void @errfinish(ptr noundef nonnull @.str.9, i32 noundef 1862, ptr noundef nonnull @__func__.ClosePipeFromProgram) #12
  unreachable

27:                                               ; preds = %1
  %28 = getelementptr inbounds nuw i8, ptr %0, i64 56
  %29 = load ptr, ptr %28, align 8
  %.not = icmp eq ptr %29, null
  br i1 %.not, label %ClosePipeFromProgram.exit, label %30

30:                                               ; preds = %27
  %31 = getelementptr inbounds nuw i8, ptr %0, i64 8
  %32 = load ptr, ptr %31, align 8
  %33 = tail call i32 @FreeFile(ptr noundef %32) #12
  %.not7 = icmp eq i32 %33, 0
  br i1 %.not7, label %ClosePipeFromProgram.exit, label %34

34:                                               ; preds = %30
  %35 = tail call zeroext i1 @errstart_cold(i32 noundef 21, ptr noundef null) #14
  tail call void @llvm.assume(i1 %35)
  %36 = tail call i32 @errcode_for_file_access() #12
  %37 = load ptr, ptr %28, align 8
  %38 = tail call i32 (ptr, ...) @errmsg(ptr noundef nonnull @.str.32, ptr noundef %37) #12
  tail call void @errfinish(ptr noundef nonnull @.str.9, i32 noundef 1822, ptr noundef nonnull @__func__.EndCopyFrom) #12
  unreachable

ClosePipeFromProgram.exit:                        ; preds = %17, %5, %27, %30
  tail call void @pgstat_progress_end_command() #12
  %39 = getelementptr inbounds nuw i8, ptr %0, i64 320
  %40 = load ptr, ptr %39, align 8
  tail call void @MemoryContextDelete(ptr noundef %40) #12
  tail call void @pfree(ptr noundef nonnull %0) #12
  ret void
}